target datalayout = "e-m:e-p270:32:32-p271:32:32-p272:64:64-i64:64-i128:128-f80:128-n8:16:32:64-S128"
target triple = "x86_64-pc-linux-gnu"

%struct.CallReply = type { ptr, ptr, ptr, i64, i32, i32, i64, %union.anon, ptr, ptr }
%union.anon = type { %struct.anon }
%struct.anon = type { ptr, ptr }

; Function Attrs: nounwind uwtable
define dso_local ptr @callReplyCreatePromise(ptr noundef %0) #0 {
  %2 = alloca ptr, align 8
  %3 = alloca ptr, align 8
  store ptr %0, ptr %2, align 8, !tbaa !26
  call void @llvm.lifetime.start.p0(i64 8, ptr %3) #6
  %4 = call noalias ptr @zmalloc(i64 noundef 80) #7
  store ptr %4, ptr %3, align 8, !tbaa !5
  %5 = load ptr, ptr %3, align 8, !tbaa !5
  %6 = getelementptr inbounds nuw %struct.CallReply, ptr %5, i32 0, i32 4
  store i32 12, ptr %6, align 8, !tbaa !16
  %7 = load ptr, ptr %3, align 8, !tbaa !5
  %8 = getelementptr inbounds nuw %struct.CallReply, ptr %7, i32 0, i32 5
  %9 = load i32, ptr %8, align 4, !tbaa !10
  %10 = or i32 %9, 3
  store i32 %10, ptr %8, align 4, !tbaa !10
  %11 = load ptr, ptr %2, align 8, !tbaa !26
  %12 = load ptr, ptr %3, align 8, !tbaa !5
  %13 = getelementptr inbounds nuw %struct.CallReply, ptr %12, i32 0, i32 0
  store ptr %11, ptr %13, align 8, !tbaa !27
  %14 = load ptr, ptr %3, align 8, !tbaa !5
  call void @llvm.lifetime.end.p0(i64 8, ptr %3) #6
  ret ptr %14
}