; Function Attrs: nounwind uwtable
define dso_local noalias noundef ptr @callReplyCreatePromise(ptr noundef %0) local_unnamed_addr #0 {
  %2 = tail call noalias dereferenceable_or_null(80) ptr @zmalloc(i64 noundef 80) #9
  %3 = getelementptr inbounds nuw i8, ptr %2, i64 32
  store i32 12, ptr %3, align 8, !tbaa !15
  %4 = getelementptr inbounds nuw i8, ptr %2, i64 36
  %5 = load i32, ptr %4, align 4, !tbaa !5
  %6 = or i32 %5, 3
  store i32 %6, ptr %4, align 4, !tbaa !5
  store ptr %0, ptr %2, align 8, !tbaa !24
  ret ptr %2
}